
_Pula_Linha:

;led.c,24 :: 		void Pula_Linha(void)
;led.c,26 :: 		UART1_WRITE(13);
	MOVLW       13
	MOVWF       FARG_UART1_Write_data_+0 
	CALL        _UART1_Write+0, 0
;led.c,27 :: 		UART1_WRITE(10);
	MOVLW       10
	MOVWF       FARG_UART1_Write_data_+0 
	CALL        _UART1_Write+0, 0
;led.c,28 :: 		}
	RETURN      0
; end of _Pula_Linha

_CustomChar:

;led.c,35 :: 		void CustomChar() {
;led.c,37 :: 		LCD_Cmd(64); //entra na CGRAM
	MOVLW       64
	MOVWF       FARG_Lcd_Cmd_out_char+0 
	CALL        _Lcd_Cmd+0, 0
;led.c,38 :: 		for (i = 0; i<=7; i++) LCD_Chr_Cp(character_0[i]); //grava 8 bytes na cgram ENDER 0 a 7  cgram
	CLRF        CustomChar_i_L0+0 
L_CustomChar0:
	MOVF        CustomChar_i_L0+0, 0 
	SUBLW       7
	BTFSS       STATUS+0, 0 
	GOTO        L_CustomChar1
	MOVLW       _character_0+0
	ADDWF       CustomChar_i_L0+0, 0 
	MOVWF       TBLPTRL 
	MOVLW       hi_addr(_character_0+0)
	MOVWF       TBLPTRH 
	MOVLW       0
	ADDWFC      TBLPTRH, 1 
	MOVLW       higher_addr(_character_0+0)
	MOVWF       TBLPTRU 
	MOVLW       0
	ADDWFC      TBLPTRU, 1 
	TBLRD*+
	MOVFF       TABLAT+0, FARG_Lcd_Chr_CP_out_char+0
	CALL        _Lcd_Chr_CP+0, 0
	INCF        CustomChar_i_L0+0, 1 
	GOTO        L_CustomChar0
L_CustomChar1:
;led.c,39 :: 		for (i = 0; i<=7; i++) LCD_Chr_Cp(character_1[i]); //grava 8 bytes na cgram ENDER 8 a 15 cgram
	CLRF        CustomChar_i_L0+0 
L_CustomChar3:
	MOVF        CustomChar_i_L0+0, 0 
	SUBLW       7
	BTFSS       STATUS+0, 0 
	GOTO        L_CustomChar4
	MOVLW       _character_1+0
	ADDWF       CustomChar_i_L0+0, 0 
	MOVWF       TBLPTRL 
	MOVLW       hi_addr(_character_1+0)
	MOVWF       TBLPTRH 
	MOVLW       0
	ADDWFC      TBLPTRH, 1 
	MOVLW       higher_addr(_character_1+0)
	MOVWF       TBLPTRU 
	MOVLW       0
	ADDWFC      TBLPTRU, 1 
	TBLRD*+
	MOVFF       TABLAT+0, FARG_Lcd_Chr_CP_out_char+0
	CALL        _Lcd_Chr_CP+0, 0
	INCF        CustomChar_i_L0+0, 1 
	GOTO        L_CustomChar3
L_CustomChar4:
;led.c,40 :: 		LCD_Cmd(_LCD_RETURN_HOME); //sai da cgram
	MOVLW       2
	MOVWF       FARG_Lcd_Cmd_out_char+0 
	CALL        _Lcd_Cmd+0, 0
;led.c,41 :: 		}
	RETURN      0
; end of _CustomChar

_main:

;led.c,43 :: 		void main()
;led.c,45 :: 		UART1_Init(19200);
	MOVLW       25
	MOVWF       SPBRG+0 
	BSF         TXSTA+0, 2, 0
	CALL        _UART1_Init+0, 0
;led.c,46 :: 		ADCON1=0B00001110;
	MOVLW       14
	MOVWF       ADCON1+0 
;led.c,47 :: 		TRISB = 0B00001111;
	MOVLW       15
	MOVWF       TRISB+0 
;led.c,48 :: 		PORTB = 0B00000000;
	CLRF        PORTB+0 
;led.c,49 :: 		Lcd_Init();
	CALL        _Lcd_Init+0, 0
;led.c,51 :: 		Lcd_Cmd(_LCD_CURSOR_OFF);
	MOVLW       12
	MOVWF       FARG_Lcd_Cmd_out_char+0 
	CALL        _Lcd_Cmd+0, 0
;led.c,53 :: 		CustomChar();
	CALL        _CustomChar+0, 0
;led.c,55 :: 		Lcd_Out(2, 6, "Temperatura");
	MOVLW       2
	MOVWF       FARG_Lcd_Out_row+0 
	MOVLW       6
	MOVWF       FARG_Lcd_Out_column+0 
	MOVLW       ?lstr1_led+0
	MOVWF       FARG_Lcd_Out_text+0 
	MOVLW       hi_addr(?lstr1_led+0)
	MOVWF       FARG_Lcd_Out_text+1 
	CALL        _Lcd_Out+0, 0
;led.c,60 :: 		while(1)
L_main6:
;led.c,62 :: 		AD = ADC_Read(0);
	CLRF        FARG_ADC_Read_channel+0 
	CALL        _ADC_Read+0, 0
	MOVF        R0, 0 
	MOVWF       _AD+0 
	MOVF        R1, 0 
	MOVWF       _AD+1 
;led.c,63 :: 		Temperatura = ((float) AD * 5.0/1024.0) * 100.0;
	CALL        _Word2Double+0, 0
	MOVLW       0
	MOVWF       R4 
	MOVLW       0
	MOVWF       R5 
	MOVLW       32
	MOVWF       R6 
	MOVLW       129
	MOVWF       R7 
	CALL        _Mul_32x32_FP+0, 0
	MOVLW       0
	MOVWF       R4 
	MOVLW       0
	MOVWF       R5 
	MOVLW       0
	MOVWF       R6 
	MOVLW       137
	MOVWF       R7 
	CALL        _Div_32x32_FP+0, 0
	MOVLW       0
	MOVWF       R4 
	MOVLW       0
	MOVWF       R5 
	MOVLW       72
	MOVWF       R6 
	MOVLW       133
	MOVWF       R7 
	CALL        _Mul_32x32_FP+0, 0
	CALL        _Double2Byte+0, 0
	MOVF        R0, 0 
	MOVWF       _Temperatura+0 
;led.c,64 :: 		inttostr(Temperatura, TXT);
	MOVF        R0, 0 
	MOVWF       FARG_IntToStr_input+0 
	MOVLW       0
	MOVWF       FARG_IntToStr_input+1 
	MOVLW       _TXT+0
	MOVWF       FARG_IntToStr_output+0 
	MOVLW       hi_addr(_TXT+0)
	MOVWF       FARG_IntToStr_output+1 
	CALL        _IntToStr+0, 0
;led.c,65 :: 		UART1_Write_Text(TXT);
	MOVLW       _TXT+0
	MOVWF       FARG_UART1_Write_Text_uart_text+0 
	MOVLW       hi_addr(_TXT+0)
	MOVWF       FARG_UART1_Write_Text_uart_text+1 
	CALL        _UART1_Write_Text+0, 0
;led.c,66 :: 		Pula_Linha();
	CALL        _Pula_Linha+0, 0
;led.c,67 :: 		Lcd_Out(3, 6, TXT);
	MOVLW       3
	MOVWF       FARG_Lcd_Out_row+0 
	MOVLW       6
	MOVWF       FARG_Lcd_Out_column+0 
	MOVLW       _TXT+0
	MOVWF       FARG_Lcd_Out_text+0 
	MOVLW       hi_addr(_TXT+0)
	MOVWF       FARG_Lcd_Out_text+1 
	CALL        _Lcd_Out+0, 0
;led.c,68 :: 		Lcd_Chr_Cp(0);
	CLRF        FARG_Lcd_Chr_CP_out_char+0 
	CALL        _Lcd_Chr_CP+0, 0
;led.c,69 :: 		Lcd_Chr_CP('C');
	MOVLW       67
	MOVWF       FARG_Lcd_Chr_CP_out_char+0 
	CALL        _Lcd_Chr_CP+0, 0
;led.c,70 :: 		}
	GOTO        L_main6
;led.c,71 :: 		}
	GOTO        $+0
; end of _main
